; Function Attrs: mustprogress nounwind uwtable
define dso_local noundef ptr @_ZN5clang19NestedNameSpecifier14SuperSpecifierERKNS_10ASTContextEPNS_13CXXRecordDeclE(ptr noundef nonnull align 8 dereferenceable(23096) %0, ptr noundef %1) local_unnamed_addr #0 align 2 {
  %3 = alloca %"class.clang::NestedNameSpecifier", align 8
  store i64 0, ptr %3, align 8
  %4 = getelementptr inbounds nuw i8, ptr %3, i64 8
  store i64 2, ptr %4, align 8
  %5 = getelementptr inbounds nuw i8, ptr %3, i64 16
  store ptr %1, ptr %5, align 8
  %6 = call noundef ptr @_ZN5clang19NestedNameSpecifier12FindOrInsertERKNS_10ASTContextERKS0_(ptr noundef nonnull align 8 dereferenceable(23096) %0, ptr noundef nonnull align 8 dereferenceable(24) %3)
  ret ptr %6
}